Certificate:
    Data:
        Version: 3 (0x2)
        Serial Number: 4098 (0x1002)
    Signature Algorithm: sha256WithRSAEncryption
        Issuer: C=RO, ST=B, L=Bucharest, O=PPSCU.COM, OU=CA, CN=inter.ppscu.com/name=CA-PPSCU/emailAddress=mail@ppscu.com
        Validity
            Not Before: May 11 19:15:21 2017 GMT
            Not After : Nov 13 19:15:21 2017 GMT
        Subject: C=RO, ST=B, L=Bucharest, O=PPSCU.COM, OU=CA, CN=danpopescu/name=CA-PPSCU/emailAddress=mail@ppscu.com
        Subject Public Key Info:
            Public Key Algorithm: rsaEncryption
                Public-Key: (2048 bit)
                Modulus:
                    00:d3:7f:ae:ce:6c:f4:cd:02:e3:89:0d:77:65:89:
                    49:b7:98:70:4b:1c:94:23:d2:3b:b3:75:da:02:c4:
                    e5:2f:be:2d:4f:ee:b6:c2:b7:af:c8:b9:5e:c3:9a:
                    00:0c:98:7a:08:f6:b7:b5:06:18:e5:69:73:ac:00:
                    c6:de:46:99:05:aa:97:cb:00:16:cc:95:06:8f:d6:
                    68:46:3e:7d:ca:c0:49:d5:a8:f0:13:0f:27:c0:28:
                    10:41:0b:74:0b:a3:d9:73:7e:6f:a9:cb:f2:e8:4e:
                    c5:d4:8a:9e:74:eb:43:d0:29:89:08:96:34:93:65:
                    c6:0c:23:2d:52:4d:a0:c4:bd:11:b5:fe:9b:8b:54:
                    77:55:e6:f1:85:3b:37:10:dc:13:0f:0f:70:79:5c:
                    a4:2b:13:b1:05:9b:66:58:4c:fe:75:3f:c4:3c:05:
                    8c:6d:ad:91:6e:be:37:80:6e:4b:5f:45:f6:e6:ad:
                    64:3c:b0:86:4b:eb:ab:00:0d:f1:92:b7:b3:53:76:
                    db:ee:2f:ca:ba:db:8c:00:28:17:22:fa:37:45:58:
                    f6:0f:cb:e6:ce:67:b6:37:25:22:35:e2:2d:0d:2e:
                    36:96:81:5a:71:3b:4f:4c:04:d9:2c:aa:30:82:65:
                    9e:9f:1f:3b:50:0e:29:f7:62:d6:2c:92:d1:08:35:
                    e7:29
                Exponent: 65537 (0x10001)
        X509v3 extensions:
            X509v3 Basic Constraints: 
                CA:FALSE
            Netscape Comment: 
                Easy-RSA Generated Certificate
            X509v3 Subject Key Identifier: 
                EA:B2:CD:16:D3:21:2B:BE:EA:62:E5:CC:15:CC:10:78:0E:64:61:F3
            X509v3 Authority Key Identifier: 
                keyid:34:E4:9A:E9:4D:29:7D:C5:06:81:FE:E9:0B:04:02:7E:1C:84:00:E8
                DirName:/C=RO/ST=B/L=Bucharest/O=PPSCU.COM/OU=CA/CN=root.ppscu.com/name=CA-PPSCU/emailAddress=mail@ppscu.com
                serial:10:00

            X509v3 Extended Key Usage: 
                TLS Web Client Authentication
            X509v3 Key Usage: 
                Digital Signature
            X509v3 Subject Alternative Name: 
                DNS:danpopescu
    Signature Algorithm: sha256WithRSAEncryption
         af:3c:5f:30:e7:66:04:0f:48:d3:36:4a:49:b0:1d:bc:84:a0:
         a9:ca:a6:7e:d7:bc:10:83:a5:60:72:81:bc:e4:c7:70:54:9b:
         77:db:dd:19:5c:6e:e3:9a:1a:72:e9:26:36:6f:e8:f9:bd:5f:
         df:b5:6a:09:1e:fb:e4:14:fa:a5:59:2d:e8:7a:80:2a:52:17:
         9f:b4:e0:94:39:d5:85:1c:76:53:97:bb:62:79:ca:4f:a7:88:
         fa:1a:e0:3c:b0:53:5e:85:b3:28:64:d7:19:ca:2a:d5:1b:66:
         6c:88:ca:7f:a9:ef:84:bc:69:65:10:ca:be:48:79:ac:02:4c:
         ac:b6:d6:88:16:26:4d:30:0c:cb:55:bb:e7:16:90:31:89:d7:
         58:8f:d1:22:1d:7c:96:24:dc:1c:63:5b:66:44:ef:21:88:15:
         ef:01:4f:99:5d:46:e5:b0:9d:b3:9f:3c:bb:e1:60:86:b0:ed:
         a5:d9:04:7b:7b:57:b9:9c:5a:be:e5:97:34:8a:fe:bb:a0:f8:
         8b:7d:51:49:0f:e7:2e:cb:0c:7a:77:9b:c2:a9:ff:54:d1:94:
         60:7e:dc:d0:0b:d8:ca:dc:63:02:0e:0c:1a:7e:eb:85:8e:07:
         f4:a1:0b:f3:65:5a:f1:1e:35:d8:57:e5:f4:93:a7:10:b1:52:
         f9:e8:af:bb
-----BEGIN CERTIFICATE-----
MIIFDzCCA/egAwIBAgICEAIwDQYJKoZIhvcNAQELBQAwgZoxCzAJBgNVBAYTAlJP
MQowCAYDVQQIEwFCMRIwEAYDVQQHEwlCdWNoYXJlc3QxEjAQBgNVBAoTCVBQU0NV
LkNPTTELMAkGA1UECxMCQ0ExGDAWBgNVBAMTD2ludGVyLnBwc2N1LmNvbTERMA8G
A1UEKRMIQ0EtUFBTQ1UxHTAbBgkqhkiG9w0BCQEWDm1haWxAcHBzY3UuY29tMB4X
DTE3MDUxMTE5MTUyMVoXDTE3MTExMzE5MTUyMVowgZUxCzAJBgNVBAYTAlJPMQow
CAYDVQQIEwFCMRIwEAYDVQQHEwlCdWNoYXJlc3QxEjAQBgNVBAoTCVBQU0NVLkNP
TTELMAkGA1UECxMCQ0ExEzARBgNVBAMTCmRhbnBvcGVzY3UxETAPBgNVBCkTCENB
LVBQU0NVMR0wGwYJKoZIhvcNAQkBFg5tYWlsQHBwc2N1LmNvbTCCASIwDQYJKoZI
hvcNAQEBBQADggEPADCCAQoCggEBANN/rs5s9M0C44kNd2WJSbeYcEsclCPSO7N1
2gLE5S++LU/utsK3r8i5XsOaAAyYegj2t7UGGOVpc6wAxt5GmQWql8sAFsyVBo/W
aEY+fcrASdWo8BMPJ8AoEEELdAuj2XN+b6nL8uhOxdSKnnTrQ9ApiQiWNJNlxgwj
LVJNoMS9EbX+m4tUd1Xm8YU7NxDcEw8PcHlcpCsTsQWbZlhM/nU/xDwFjG2tkW6+
N4BuS19F9uatZDywhkvrqwAN8ZK3s1N22+4vyrrbjAAoFyL6N0VY9g/L5s5ntjcl
IjXiLQ0uNpaBWnE7T0wE2SyqMIJlnp8fO1AOKfdi1iyS0Qg15ykCAwEAAaOCAWAw
ggFcMAkGA1UdEwQCMAAwLQYJYIZIAYb4QgENBCAWHkVhc3ktUlNBIEdlbmVyYXRl
ZCBDZXJ0aWZpY2F0ZTAdBgNVHQ4EFgQU6rLNFtMhK77qYuXMFcwQeA5kYfMwgccG
A1UdIwSBvzCBvIAUNOSa6U0pfcUGgf7pCwQCfhyEAOihgZ+kgZwwgZkxCzAJBgNV
BAYTAlJPMQowCAYDVQQIEwFCMRIwEAYDVQQHEwlCdWNoYXJlc3QxEjAQBgNVBAoT
CVBQU0NVLkNPTTELMAkGA1UECxMCQ0ExFzAVBgNVBAMTDnJvb3QucHBzY3UuY29t
MREwDwYDVQQpEwhDQS1QUFNDVTEdMBsGCSqGSIb3DQEJARYObWFpbEBwcHNjdS5j
b22CAhAAMBMGA1UdJQQMMAoGCCsGAQUFBwMCMAsGA1UdDwQEAwIHgDAVBgNVHREE
DjAMggpkYW5wb3Blc2N1MA0GCSqGSIb3DQEBCwUAA4IBAQCvPF8w52YED0jTNkpJ
sB28hKCpyqZ+17wQg6VgcoG85MdwVJt3290ZXG7jmhpy6SY2b+j5vV/ftWoJHvvk
FPqlWS3oeoAqUheftOCUOdWFHHZTl7tiecpPp4j6GuA8sFNehbMoZNcZyirVG2Zs
iMp/qe+EvGllEMq+SHmsAkysttaIFiZNMAzLVbvnFpAxiddYj9EiHXyWJNwcY1tm
RO8hiBXvAU+ZXUblsJ2znzy74WCGsO2l2QR7e1e5nFq+5Zc0iv67oPiLfVFJD+cu
ywx6d5vCqf9U0ZRgftzQC9jK3GMCDgwafuuFjgf0oQvzZVrxHjXYV+X0k6cQsVL5
6K+7
-----END CERTIFICATE-----
